; Function Attrs: mustprogress uwtable
define { i64, i64 } @_ZN6duckdb14MetadataWriter19GetMetaBlockPointerEv(ptr noundef nonnull align 8 dereferenceable(80) %0) local_unnamed_addr #2 align 2 {
  %2 = getelementptr inbounds nuw i8, ptr %0, i64 72
  %3 = load i64, ptr %2, align 8, !tbaa !214
  %4 = getelementptr inbounds nuw i8, ptr %0, i64 64
  %5 = load i64, ptr %4, align 8, !tbaa !217
  %.not = icmp ult i64 %3, %5
  br i1 %.not, label %7, label %6

6:                                                ; preds = %1
  tail call void @_ZN6duckdb14MetadataWriter9NextBlockEv(ptr noundef nonnull align 8 dereferenceable(80) %0)
  %.pre = load i64, ptr %2, align 8, !tbaa !214
  br label %7

7:                                                ; preds = %6, %1
  %8 = phi i64 [ %.pre, %6 ], [ %3, %1 ]
  %9 = getelementptr inbounds nuw i8, ptr %0, i64 16
  %10 = load i64, ptr %9, align 8
  %.fca.0.insert.i = insertvalue { i64, i64 } poison, i64 %10, 0
  %.sroa.2.8.insert.ext.i = and i64 %8, 4294967295
  %.fca.1.insert.i = insertvalue { i64, i64 } %.fca.0.insert.i, i64 %.sroa.2.8.insert.ext.i, 1
  ret { i64, i64 } %.fca.1.insert.i
}